; Function Attrs: mustprogress nounwind uwtable
define void @_ZN3nix10ThreadPoolD2Ev(ptr noundef nonnull align 8 dereferenceable(232) %0) unnamed_addr #4 align 2 personality ptr @__gxx_personality_v0 {
  invoke void @_ZN3nix10ThreadPool8shutdownEv(ptr noundef nonnull align 8 dereferenceable(232) %0)
          to label %2 unwind label %16

2:                                                ; preds = %1
  %3 = getelementptr inbounds i8, ptr %0, i64 184
  tail call void @_ZNSt18condition_variableD1Ev(ptr noundef nonnull align 8 dereferenceable(48) %3) #27
  %4 = getelementptr inbounds i8, ptr %0, i64 152
  %5 = load ptr, ptr %4, align 8
  %6 = getelementptr inbounds i8, ptr %0, i64 160
  %7 = load ptr, ptr %6, align 8
  %.not4.i.i.i.i.i.i = icmp eq ptr %5, %7
  br i1 %.not4.i.i.i.i.i.i, label %_ZSt8_DestroyIPSt6threadS0_EvT_S2_RSaIT0_E.exit.i.i.i, label %_ZSt8_DestroyISt6threadEvPT_.exit.i.i.i.i.i.i

8:                                                ; preds = %_ZSt8_DestroyISt6threadEvPT_.exit.i.i.i.i.i.i
  %9 = getelementptr inbounds i8, ptr %.05.i.i.i.i.i.i, i64 8
  %.not.i.i.i.i.i.i = icmp eq ptr %9, %7
  br i1 %.not.i.i.i.i.i.i, label %_ZSt8_DestroyIPSt6threadS0_EvT_S2_RSaIT0_E.exit.i.i.i, label %_ZSt8_DestroyISt6threadEvPT_.exit.i.i.i.i.i.i, !llvm.loop !8

_ZSt8_DestroyISt6threadEvPT_.exit.i.i.i.i.i.i:    ; preds = %2, %8
  %.05.i.i.i.i.i.i = phi ptr [ %9, %8 ], [ %5, %2 ]
  %.sroa.0.0.copyload.i.i.i.i.i.i.i.i.i.i = load i64, ptr %.05.i.i.i.i.i.i, align 8
  %.not.i.i.i.i.i.i.i.i.i = icmp eq i64 %.sroa.0.0.copyload.i.i.i.i.i.i.i.i.i.i, 0
  br i1 %.not.i.i.i.i.i.i.i.i.i, label %8, label %10

10:                                               ; preds = %_ZSt8_DestroyISt6threadEvPT_.exit.i.i.i.i.i.i
  tail call void @_ZSt9terminatev() #31
  unreachable

_ZSt8_DestroyIPSt6threadS0_EvT_S2_RSaIT0_E.exit.i.i.i: ; preds = %8, %2
  %.not.i.i.i.i.i = icmp eq ptr %5, null
  br i1 %.not.i.i.i.i.i, label %_ZNSt6vectorISt6threadSaIS0_EED2Ev.exit.i.i, label %11

11:                                               ; preds = %_ZSt8_DestroyIPSt6threadS0_EvT_S2_RSaIT0_E.exit.i.i.i
  tail call void @_ZdlPv(ptr noundef nonnull %5) #28
  br label %_ZNSt6vectorISt6threadSaIS0_EED2Ev.exit.i.i

_ZNSt6vectorISt6threadSaIS0_EED2Ev.exit.i.i:      ; preds = %11, %_ZSt8_DestroyIPSt6threadS0_EvT_S2_RSaIT0_E.exit.i.i.i
  %12 = getelementptr inbounds i8, ptr %0, i64 144
  %13 = load ptr, ptr %12, align 8
  %.not.i.i.i = icmp eq ptr %13, null
  br i1 %.not.i.i.i, label %_ZN3nix4SyncINS_10ThreadPool5StateESt5mutexED2Ev.exit, label %14

14:                                               ; preds = %_ZNSt6vectorISt6threadSaIS0_EED2Ev.exit.i.i
  tail call void @_ZNSt15__exception_ptr13exception_ptr10_M_releaseEv(ptr noundef nonnull align 8 dereferenceable(8) %12) #27
  br label %_ZN3nix4SyncINS_10ThreadPool5StateESt5mutexED2Ev.exit

_ZN3nix4SyncINS_10ThreadPool5StateESt5mutexED2Ev.exit: ; preds = %_ZNSt6vectorISt6threadSaIS0_EED2Ev.exit.i.i, %14
  %15 = getelementptr inbounds i8, ptr %0, i64 56
  tail call void @_ZNSt5dequeISt8functionIFvvEESaIS2_EED2Ev(ptr noundef nonnull align 8 dereferenceable(80) %15) #27
  ret void

16:                                               ; preds = %1
  %17 = landingpad { ptr, i32 }
          catch ptr null
  %18 = extractvalue { ptr, i32 } %17, 0
  tail call void @__clang_call_terminate(ptr %18) #31
  unreachable
}